Certificate:
    Data:
        Version: 1 (0x0)
        Serial Number:
            01:51:16:9e:8b:d6:bc:0f:e3:ba:70:b6:1c:63:54:2d:17:56:ea:f1
        Signature Algorithm: sha256WithRSAEncryption
        Issuer: C=TW, ST=Taiwan, L=Taipei, O=NTU CNS, OU=ROOT, CN=ROOT, emailAddress=cns@csie.ntu.edu.tw
        Validity
            Not Before: Mar 27 02:30:09 2024 GMT
            Not After : May 26 02:30:09 2024 GMT
        Subject: C=TW, ST=Taiwan, L=Taipei, O=NTU CNS, OU=VIP, CN=Alice413, emailAddress=cns@csie.ntu.edu.tw
        Subject Public Key Info:
            Public Key Algorithm: rsaEncryption
                Public-Key: (4096 bit)
                Modulus:
                    00:9f:8e:80:85:c9:5c:6e:d2:fd:28:59:7a:d2:e1:
                    5a:02:0a:26:96:2a:58:17:4b:ef:50:35:2a:c9:35:
                    d7:1b:68:ae:c6:80:3b:0a:0d:35:9b:59:94:84:df:
                    20:90:c9:38:95:47:dd:27:b0:ad:22:75:97:88:44:
                    cf:f3:c4:de:51:d2:a7:d8:de:70:46:f6:63:23:3e:
                    74:15:20:a1:4b:06:cd:26:2d:36:a2:2f:fc:25:bb:
                    fd:a0:4a:c6:00:fc:98:c9:b0:78:58:e2:d0:9b:4b:
                    91:56:b7:3b:d1:26:95:6f:6f:d0:53:d7:76:f3:66:
                    b4:1e:7c:db:e2:75:2d:b0:e1:d0:ed:72:51:eb:a5:
                    91:f2:d3:49:77:e0:e5:22:ec:07:13:81:ad:e0:c3:
                    8b:b1:a7:75:21:4f:42:3f:55:6a:ef:40:b5:eb:0a:
                    98:2e:52:79:74:b7:f2:c9:58:cc:06:39:80:20:76:
                    14:57:7f:63:37:01:19:a9:1b:cb:1c:87:6f:e3:6b:
                    6d:bd:60:50:42:12:4b:e2:e3:18:56:55:92:27:f0:
                    34:0b:ab:60:65:30:2c:1e:f1:0f:2e:bf:5b:59:2d:
                    58:f1:e0:96:30:10:ff:ef:24:2b:26:1e:1a:89:b8:
                    f9:31:4e:b5:75:d2:e2:8f:36:fe:bf:34:ee:e2:db:
                    fe:8b:7c:3d:c6:d0:83:89:38:ef:f2:c1:b6:13:cd:
                    7d:88:ff:39:49:54:d0:ca:2b:50:fa:fd:40:f0:aa:
                    c6:5f:dc:5f:04:81:0c:33:3b:8b:83:8e:e6:77:d6:
                    85:56:d0:89:2c:f2:6f:fb:78:6c:b9:cf:d6:20:83:
                    d3:53:c3:12:d5:fe:2e:05:e0:e0:d7:de:6e:ab:a0:
                    b5:12:98:b5:3f:80:6c:88:58:77:4a:7b:09:16:9b:
                    a3:3c:7e:19:93:a2:eb:b3:af:c2:aa:18:ff:03:7e:
                    09:cc:c1:be:32:9c:9d:23:dd:bd:38:17:f4:03:95:
                    a4:ee:b9:31:00:26:eb:d5:d1:e1:a6:8d:4d:ea:27:
                    d4:ce:1c:42:3e:ef:36:be:9f:95:dd:e1:0f:7a:42:
                    44:d3:a1:d7:c0:64:c6:71:f3:96:81:77:22:d7:ad:
                    97:f6:09:bb:60:ba:eb:bc:12:55:36:6e:12:9b:4d:
                    63:6a:76:cd:2a:5e:c1:74:26:8a:04:1a:fc:9b:77:
                    5d:2c:09:8b:56:8a:34:c7:83:ce:4a:fa:bc:6b:47:
                    7e:31:54:bf:a1:c3:01:51:6c:4b:35:97:29:08:2c:
                    88:dd:b1:7f:0d:8b:09:ed:ee:6e:8e:3c:8d:11:8a:
                    d8:02:4a:6d:f8:75:2b:11:d4:cc:94:28:60:5f:d0:
                    25:af:1d
                Exponent: 65537 (0x10001)
    Signature Algorithm: sha256WithRSAEncryption
    Signature Value:
        09:57:41:eb:9b:fd:af:9c:e8:dd:27:52:87:75:e8:a3:fc:b0:
        c6:1a:6d:cd:de:28:86:f2:a0:fc:9e:00:84:b6:b5:16:df:b8:
        7a:52:3d:57:b7:9b:b1:5b:95:85:e1:8d:4b:e1:c9:6e:1d:b3:
        67:4e:f9:15:f2:4d:dc:a2:81:eb:d4:f2:15:1d:ee:c9:31:30:
        0f:1f:06:08:66:de:5d:8a:3a:46:a3:13:64:f4:e1:a0:81:37:
        af:dd:9d:3d:96:89:df:8b:79:3d:85:83:af:03:84:11:2f:02:
        89:bb:7a:52:b0:9e:ca:82:97:41:ad:63:35:82:46:3e:46:2f:
        0d:9e:54:57:0f:45:93:a7:5e:9c:8d:a5:c0:2b:29:31:6a:a5:
        1e:86:82:2c:c0:d9:7d:00:17:3c:3f:b3:a3:6f:5c:5b:21:17:
        82:7a:e7:5a:73:74:4a:74:df:bb:b1:db:48:f6:22:0d:0d:46:
        53:78:b3:0d:e3:fe:54:e3:03:78:02:d7:2b:47:95:d9:95:d4:
        67:be:35:ab:5a:9e:f7:53:6c:b8:90:57:52:01:df:88:ce:22:
        64:50:93:47:2e:96:66:10:1b:e8:17:91:7f:01:86:92:37:f5:
        e6:0b:ca:a2:28:2e:6f:b2:46:3b:de:dd:da:5c:29:86:8a:7f:
        de:ce:9f:40:1c:6d:34:eb:ca:dc:d1:a8:a7:1c:10:b8:5a:18:
        5b:0a:04:48:d8:3b:c5:d2:d3:8a:71:30:a2:4a:7e:f4:e2:1b:
        63:78:9b:00:dd:9a:62:3d:5c:2f:59:e8:1f:e8:13:8a:bc:1c:
        4e:a4:38:1f:9c:de:9e:1f:1f:bd:d2:92:ab:6c:9a:05:c4:58:
        8b:5b:b9:f1:57:50:6c:e0:2b:45:dc:20:23:72:bc:72:9d:ba:
        14:50:21:ba:e5:21:b9:e8:e8:99:49:a0:95:aa:41:1b:d6:19:
        70:29:e4:a2:ab:c3:e8:4b:41:bb:a8:8c:a3:c7:27:9e:2f:99:
        1d:ab:dd:cb:7f:28:1d:21:78:fe:c2:95:ff:46:bf:ba:0d:cf:
        3c:9e:6e:2a:07:e7:1e:5b:9d:2a:27:f1:c0:8f:3d:19:bd:83:
        c2:f2:14:be:31:32:44:73:13:86:77:75:7f:13:c8:1e:c2:72:
        c9:56:4e:06:69:20:07:5d:26:28:a2:ba:c4:b2:71:88:fa:e8:
        39:2b:6e:ec:00:7a:c1:fc:ed:d1:f0:ed:3b:d7:93:f1:30:89:
        5c:37:4a:ae:16:ec:48:a4:0b:24:57:f5:04:d2:ce:f8:bb:40:
        a0:f5:77:36:a0:39:92:9a:13:8e:e0:0b:5c:74:da:83:b2:0a:
        ad:1a:3e:99:17:0d:6c:69
-----BEGIN CERTIFICATE-----
MIIFkjCCA3oCFAFRFp6L1rwP47pwthxjVC0XVurxMA0GCSqGSIb3DQEBCwUAMIGD
MQswCQYDVQQGEwJUVzEPMA0GA1UECAwGVGFpd2FuMQ8wDQYDVQQHDAZUYWlwZWkx
EDAOBgNVBAoMB05UVSBDTlMxDTALBgNVBAsMBFJPT1QxDTALBgNVBAMMBFJPT1Qx
IjAgBgkqhkiG9w0BCQEWE2Nuc0Bjc2llLm50dS5lZHUudHcwHhcNMjQwMzI3MDIz
MDA5WhcNMjQwNTI2MDIzMDA5WjCBhjELMAkGA1UEBhMCVFcxDzANBgNVBAgMBlRh
aXdhbjEPMA0GA1UEBwwGVGFpcGVpMRAwDgYDVQQKDAdOVFUgQ05TMQwwCgYDVQQL
DANWSVAxETAPBgNVBAMMCEFsaWNlNDEzMSIwIAYJKoZIhvcNAQkBFhNjbnNAY3Np
ZS5udHUuZWR1LnR3MIICIjANBgkqhkiG9w0BAQEFAAOCAg8AMIICCgKCAgEAn46A
hclcbtL9KFl60uFaAgomlipYF0vvUDUqyTXXG2iuxoA7Cg01m1mUhN8gkMk4lUfd
J7CtInWXiETP88TeUdKn2N5wRvZjIz50FSChSwbNJi02oi/8Jbv9oErGAPyYybB4
WOLQm0uRVrc70SaVb2/QU9d282a0Hnzb4nUtsOHQ7XJR66WR8tNJd+DlIuwHE4Gt
4MOLsad1IU9CP1Vq70C16wqYLlJ5dLfyyVjMBjmAIHYUV39jNwEZqRvLHIdv42tt
vWBQQhJL4uMYVlWSJ/A0C6tgZTAsHvEPLr9bWS1Y8eCWMBD/7yQrJh4aibj5MU61
ddLijzb+vzTu4tv+i3w9xtCDiTjv8sG2E819iP85SVTQyitQ+v1A8KrGX9xfBIEM
MzuLg47md9aFVtCJLPJv+3hsuc/WIIPTU8MS1f4uBeDg195uq6C1Epi1P4BsiFh3
SnsJFpujPH4Zk6Lrs6/Cqhj/A34JzMG+MpydI929OBf0A5Wk7rkxACbr1dHhpo1N
6ifUzhxCPu82vp+V3eEPekJE06HXwGTGcfOWgXci162X9gm7YLrrvBJVNm4Sm01j
anbNKl7BdCaKBBr8m3ddLAmLVoo0x4POSvq8a0d+MVS/ocMBUWxLNZcpCCyI3bF/
DYsJ7e5ujjyNEYrYAkpt+HUrEdTMlChgX9Alrx0CAwEAATANBgkqhkiG9w0BAQsF
AAOCAgEACVdB65v9r5zo3SdSh3Xoo/ywxhptzd4ohvKg/J4AhLa1Ft+4elI9V7eb
sVuVheGNS+HJbh2zZ075FfJN3KKB69TyFR3uyTEwDx8GCGbeXYo6RqMTZPThoIE3
r92dPZaJ34t5PYWDrwOEES8Cibt6UrCeyoKXQa1jNYJGPkYvDZ5UVw9Fk6denI2l
wCspMWqlHoaCLMDZfQAXPD+zo29cWyEXgnrnWnN0SnTfu7HbSPYiDQ1GU3izDeP+
VOMDeALXK0eV2ZXUZ741q1qe91NsuJBXUgHfiM4iZFCTRy6WZhAb6BeRfwGGkjf1
5gvKoigub7JGO97d2lwphop/3s6fQBxtNOvK3NGopxwQuFoYWwoESNg7xdLTinEw
okp+9OIbY3ibAN2aYj1cL1noH+gTirwcTqQ4H5zenh8fvdKSq2yaBcRYi1u58VdQ
bOArRdwgI3K8cp26FFAhuuUhuejomUmglapBG9YZcCnkoqvD6EtBu6iMo8cnni+Z
Havdy38oHSF4/sKV/0a/ug3PPJ5uKgfnHludKifxwI89Gb2DwvIUvjEyRHMThnd1
fxPIHsJyyVZOBmkgB10mKKK6xLJxiProOStu7AB6wfzt0fDtO9eT8TCJXDdKrhbs
SKQLJFf1BNLO+LtAoPV3NqA5kpoTjuALXHTag7IKrRo+mRcNbGk=
-----END CERTIFICATE-----
